target datalayout = "e-m:e-p270:32:32-p271:32:32-p272:64:64-i64:64-i128:128-f80:128-n8:16:32:64-S128"
target triple = "x86_64-pc-linux-gnu"

%struct.nameData = type { [64 x i8] }
%struct.FormData_pg_event_trigger = type { i32, %struct.nameData, %struct.nameData, i32, i32, i8 }
%struct.HeapTupleData = type { i32, %struct.ItemPointerData, i32, ptr }
%struct.ItemPointerData = type { %struct.BlockIdData, i16 }
%struct.BlockIdData = type { i16, i16 }
%struct.HeapTupleHeaderData = type { %union.anon.6, %struct.ItemPointerData, i16, i16, i8, [0 x i8] }
%union.anon.6 = type { %struct.HeapTupleFields }
%struct.HeapTupleFields = type { i32, i32, %union.anon.7 }
%union.anon.7 = type { i32 }

@.str.2 = private unnamed_addr constant [16 x i8] c"event_trigger.c\00", align 1
@object_access_hook = external global ptr, align 8
@.str.35 = private unnamed_addr constant [56 x i8] c"permission denied to change owner of event trigger \22%s\22\00", align 1
@.str.36 = private unnamed_addr constant [51 x i8] c"The owner of an event trigger must be a superuser.\00", align 1
@__func__.AlterEventTriggerOwner_internal = private unnamed_addr constant [32 x i8] c"AlterEventTriggerOwner_internal\00", align 1

; Function Attrs: inlinehint nounwind uwtable
define internal ptr @GETSTRUCT(ptr noundef %0) #6 {
  %2 = alloca ptr, align 8
  store ptr %0, ptr %2, align 8
  %3 = load ptr, ptr %2, align 8
  %4 = getelementptr inbounds nuw %struct.HeapTupleData, ptr %3, i32 0, i32 3
  %5 = load ptr, ptr %4, align 8
  %6 = load ptr, ptr %2, align 8
  %7 = getelementptr inbounds nuw %struct.HeapTupleData, ptr %6, i32 0, i32 3
  %8 = load ptr, ptr %7, align 8
  %9 = getelementptr inbounds nuw %struct.HeapTupleHeaderData, ptr %8, i32 0, i32 4
  %10 = load i8, ptr %9, align 2
  %11 = zext i8 %10 to i32
  %12 = sext i32 %11 to i64
  %13 = getelementptr inbounds i8, ptr %5, i64 %12
  ret ptr %13
}

; Function Attrs: nounwind uwtable
define internal void @AlterEventTriggerOwner_internal(ptr noundef %0, ptr noundef %1, i32 noundef %2) #0 {
  %4 = alloca ptr, align 8
  %5 = alloca ptr, align 8
  %6 = alloca i32, align 4
  %7 = alloca ptr, align 8
  %8 = alloca i32, align 4
  store ptr %0, ptr %4, align 8
  store ptr %1, ptr %5, align 8
  store i32 %2, ptr %6, align 4
  call void @llvm.lifetime.start.p0(i64 8, ptr %7) #10
  %9 = load ptr, ptr %5, align 8
  %10 = call ptr @GETSTRUCT(ptr noundef %9)
  store ptr %10, ptr %7, align 8
  %11 = load ptr, ptr %7, align 8
  %12 = getelementptr inbounds nuw %struct.FormData_pg_event_trigger, ptr %11, i32 0, i32 3
  %13 = load i32, ptr %12, align 4
  %14 = load i32, ptr %6, align 4
  %15 = icmp eq i32 %13, %14
  br i1 %15, label %16, label %17

16:                                               ; preds = %3
  store i32 1, ptr %8, align 4
  br label %70

17:                                               ; preds = %3
  %18 = load ptr, ptr %7, align 8
  %19 = getelementptr inbounds nuw %struct.FormData_pg_event_trigger, ptr %18, i32 0, i32 0
  %20 = load i32, ptr %19, align 4
  %21 = call i32 @GetUserId()
  %22 = call zeroext i1 @object_ownercheck(i32 noundef 3466, i32 noundef %20, i32 noundef %21)
  br i1 %22, label %28, label %23

23:                                               ; preds = %17
  %24 = load ptr, ptr %7, align 8
  %25 = getelementptr inbounds nuw %struct.FormData_pg_event_trigger, ptr %24, i32 0, i32 1
  %26 = getelementptr inbounds nuw %struct.nameData, ptr %25, i32 0, i32 0
  %27 = getelementptr inbounds [64 x i8], ptr %26, i64 0, i64 0
  call void @aclcheck_error(i32 noundef 2, i32 noundef 14, ptr noundef %27)
  br label %28

28:                                               ; preds = %23, %17
  %29 = load i32, ptr %6, align 4
  %30 = call zeroext i1 @superuser_arg(i32 noundef %29)
  br i1 %30, label %48, label %31

31:                                               ; preds = %28
  br label %32

32:                                               ; preds = %31
  br i1 true, label %33, label %35

33:                                               ; preds = %32
  %34 = call zeroext i1 @errstart_cold(i32 noundef 21, ptr noundef null) #11
  br i1 %34, label %37, label %45

35:                                               ; preds = %32
  %36 = call zeroext i1 @errstart(i32 noundef 21, ptr noundef null)
  br i1 %36, label %37, label %45

37:                                               ; preds = %35, %33
  %38 = call i32 @errcode(i32 noundef 16797828)
  %39 = load ptr, ptr %7, align 8
  %40 = getelementptr inbounds nuw %struct.FormData_pg_event_trigger, ptr %39, i32 0, i32 1
  %41 = getelementptr inbounds nuw %struct.nameData, ptr %40, i32 0, i32 0
  %42 = getelementptr inbounds [64 x i8], ptr %41, i64 0, i64 0
  %43 = call i32 (ptr, ...) @errmsg(ptr noundef @.str.35, ptr noundef %42)
  %44 = call i32 (ptr, ...) @errhint(ptr noundef @.str.36)
  call void @errfinish(ptr noundef @.str.2, i32 noundef 554, ptr noundef @__func__.AlterEventTriggerOwner_internal)
  br label %45

45:                                               ; preds = %37, %35, %33
  unreachable

46:                                               ; No predecessors!
  br label %47

47:                                               ; preds = %46
  br label %48

48:                                               ; preds = %47, %28
  %49 = load i32, ptr %6, align 4
  %50 = load ptr, ptr %7, align 8
  %51 = getelementptr inbounds nuw %struct.FormData_pg_event_trigger, ptr %50, i32 0, i32 3
  store i32 %49, ptr %51, align 4
  %52 = load ptr, ptr %4, align 8
  %53 = load ptr, ptr %5, align 8
  %54 = getelementptr inbounds nuw %struct.HeapTupleData, ptr %53, i32 0, i32 1
  %55 = load ptr, ptr %5, align 8
  call void @CatalogTupleUpdate(ptr noundef %52, ptr noundef %54, ptr noundef %55)
  %56 = load ptr, ptr %7, align 8
  %57 = getelementptr inbounds nuw %struct.FormData_pg_event_trigger, ptr %56, i32 0, i32 0
  %58 = load i32, ptr %57, align 4
  %59 = load i32, ptr %6, align 4
  call void @changeDependencyOnOwner(i32 noundef 3466, i32 noundef %58, i32 noundef %59)
  br label %60

60:                                               ; preds = %48
  %61 = load ptr, ptr @object_access_hook, align 8
  %62 = icmp ne ptr %61, null
  br i1 %62, label %63, label %67

63:                                               ; preds = %60
  %64 = load ptr, ptr %7, align 8
  %65 = getelementptr inbounds nuw %struct.FormData_pg_event_trigger, ptr %64, i32 0, i32 0
  %66 = load i32, ptr %65, align 4
  call void @RunObjectPostAlterHook(i32 noundef 3466, i32 noundef %66, i32 noundef 0, i32 noundef 0, i1 noundef zeroext false)
  br label %67

67:                                               ; preds = %63, %60
  br label %68

68:                                               ; preds = %67
  br label %69

69:                                               ; preds = %68
  store i32 0, ptr %8, align 4
  br label %70

70:                                               ; preds = %69, %16
  call void @llvm.lifetime.end.p0(i64 8, ptr %7) #10
  %71 = load i32, ptr %8, align 4
  switch i32 %71, label %73 [
    i32 0, label %72
    i32 1, label %72
  ]

72:                                               ; preds = %70, %70
  ret void

73:                                               ; preds = %70
  unreachable
}