; Function Attrs: nounwind uwtable
define internal fastcc void @AlterEventTriggerOwner_internal(ptr noundef %0, ptr noundef nonnull %1, i32 noundef %2) unnamed_addr #0 {
  %4 = getelementptr i8, ptr %1, i64 16
  %.val = load ptr, ptr %4, align 8
  %5 = getelementptr inbounds nuw i8, ptr %.val, i64 22
  %6 = load i8, ptr %5, align 2
  %7 = zext i8 %6 to i64
  %8 = getelementptr inbounds nuw i8, ptr %.val, i64 %7
  %9 = getelementptr inbounds nuw i8, ptr %8, i64 132
  %10 = load i32, ptr %9, align 4
  %11 = icmp eq i32 %10, %2
  br i1 %11, label %32, label %12

12:                                               ; preds = %3
  %13 = load i32, ptr %8, align 4
  %14 = tail call i32 @GetUserId() #16
  %15 = tail call zeroext i1 @object_ownercheck(i32 noundef 3466, i32 noundef %13, i32 noundef %14) #16
  br i1 %15, label %18, label %16

16:                                               ; preds = %12
  %17 = getelementptr inbounds nuw i8, ptr %8, i64 4
  tail call void @aclcheck_error(i32 noundef 2, i32 noundef 14, ptr noundef nonnull %17) #16
  br label %18

18:                                               ; preds = %16, %12
  %19 = tail call zeroext i1 @superuser_arg(i32 noundef %2) #16
  br i1 %19, label %26, label %20

20:                                               ; preds = %18
  %21 = tail call zeroext i1 @errstart_cold(i32 noundef 21, ptr noundef null) #17
  tail call void @llvm.assume(i1 %21)
  %22 = tail call i32 @errcode(i32 noundef 16797828) #16
  %23 = getelementptr inbounds nuw i8, ptr %8, i64 4
  %24 = tail call i32 (ptr, ...) @errmsg(ptr noundef nonnull @.str.35, ptr noundef nonnull %23) #16
  %25 = tail call i32 (ptr, ...) @errhint(ptr noundef nonnull @.str.36) #16
  tail call void @errfinish(ptr noundef nonnull @.str.2, i32 noundef 554, ptr noundef nonnull @__func__.AlterEventTriggerOwner_internal) #16
  unreachable

26:                                               ; preds = %18
  store i32 %2, ptr %9, align 4
  %27 = getelementptr inbounds nuw i8, ptr %1, i64 4
  tail call void @CatalogTupleUpdate(ptr noundef %0, ptr noundef nonnull %27, ptr noundef nonnull %1) #16
  %28 = load i32, ptr %8, align 4
  tail call void @changeDependencyOnOwner(i32 noundef 3466, i32 noundef %28, i32 noundef %2) #16
  %29 = load ptr, ptr @object_access_hook, align 8
  %.not = icmp eq ptr %29, null
  br i1 %.not, label %32, label %30

30:                                               ; preds = %26
  %31 = load i32, ptr %8, align 4
  tail call void @RunObjectPostAlterHook(i32 noundef 3466, i32 noundef %31, i32 noundef 0, i32 noundef 0, i1 noundef zeroext false) #16
  br label %32

32:                                               ; preds = %26, %30, %3
  ret void
}